EXPORTS
    LODEPNG_VERSION_STRING @1 DATA
    _Z13lodepng_crc32PKhy @2
    _Z14lodepng_decodePPhPjS1_P12LodePNGStatePKhy @3
    _Z14lodepng_encodePPhPyPKhjjP12LodePNGState @4
    _Z15lodepng_convertPhPKhPK16LodePNGColorModeS4_jj @5
    _Z15lodepng_deflatePPhPyPKhyPK23LodePNGCompressSettings @6
    _Z15lodepng_get_bppPK16LodePNGColorMode @7
    _Z15lodepng_inflatePPhPyPKhyPK25LodePNGDecompressSettings @8
    _Z15lodepng_inspectPjS_P12LodePNGStatePKhy @9
    _Z15lodepng_set_iccP11LodePNGInfoPKcPKhj @10
    _Z16lodepng_add_textP11LodePNGInfoPKcS2_ @11
    _Z16lodepng_decode24PPhPjS1_PKhy @12
    _Z16lodepng_decode32PPhPjS1_PKhy @13
    _Z16lodepng_encode24PPhPyPKhjj @14
    _Z16lodepng_encode32PPhPyPKhjj @15
    _Z17lodepng_add_itextP11LodePNGInfoPKcS2_S2_S2_ @16
    _Z17lodepng_clear_iccP11LodePNGInfo @17
    _Z17lodepng_info_copyP11LodePNGInfoPKS_ @18
    _Z17lodepng_info_initP11LodePNGInfo @19
    _Z17lodepng_load_filePPhPyPKc @20
    _Z17lodepng_save_filePKhyPKc @21
    _Z18lodepng_chunk_dataPh @22
    _Z18lodepng_chunk_findPhS_PKc @23
    _Z18lodepng_chunk_nextPhS_ @24
    _Z18lodepng_chunk_typePcPKh @25
    _Z18lodepng_clear_textP11LodePNGInfo @26
    _Z18lodepng_error_textj @27
    _Z18lodepng_state_copyP12LodePNGStatePKS_ @28
    _Z18lodepng_state_initP12LodePNGState @29
    _Z19lodepng_clear_itextP11LodePNGInfo @30
    _Z19lodepng_convert_rgbPjS_S_jjjPK16LodePNGColorModeS2_ @31
    _Z19lodepng_decode_filePPhPjS1_PKc16LodePNGColorTypej @32
    _Z19lodepng_encode_filePKcPKhjj16LodePNGColorTypej @33
    _Z19lodepng_palette_addP16LodePNGColorModehhhh @34
    _Z20lodepng_chunk_appendPPhPyPKh @35
    _Z20lodepng_chunk_createPPhPyjPKcPKh @36
    _Z20lodepng_chunk_lengthPKh @37
    _Z20lodepng_get_channelsPK16LodePNGColorMode @38
    _Z20lodepng_get_raw_sizejjPK16LodePNGColorMode @39
    _Z20lodepng_info_cleanupP11LodePNGInfo @40
    _Z21lodepng_chunk_privatePKh @41
    _Z21lodepng_decode24_filePPhPjS1_PKc @42
    _Z21lodepng_decode32_filePPhPjS1_PKc @43
    _Z21lodepng_decode_memoryPPhPjS1_PKhy16LodePNGColorTypej @44
    _Z21lodepng_encode24_filePKcPKhjj @45
    _Z21lodepng_encode32_filePKcPKhjj @46
    _Z21lodepng_encode_memoryPPhPyPKhjj16LodePNGColorTypej @47
    _Z21lodepng_inspect_chunkP12LodePNGStateyPKhy @48
    _Z21lodepng_is_alpha_typePK16LodePNGColorMode @49
    _Z21lodepng_palette_clearP16LodePNGColorMode @50
    _Z21lodepng_state_cleanupP12LodePNGState @51
    _Z21lodepng_zlib_compressPPhPyPKhyPK23LodePNGCompressSettings @52
    _Z22lodepng_can_have_alphaPK16LodePNGColorMode @53
    _Z23lode_png_test_bitreaderPKhyyPKyPj @54
    _Z23lodepng_chunk_ancillaryPKh @55
    _Z23lodepng_chunk_check_crcPKh @56
    _Z23lodepng_color_mode_copyP16LodePNGColorModePKS_ @57
    _Z23lodepng_color_mode_initP16LodePNGColorMode @58
    _Z23lodepng_color_mode_make16LodePNGColorTypej @59
    _Z23lodepng_is_palette_typePK16LodePNGColorMode @60
    _Z23lodepng_zlib_decompressPPhPyPKhyPK25LodePNGDecompressSettings @61
    _Z24lodepng_chunk_data_constPKh @62
    _Z24lodepng_chunk_find_constPKhS0_PKc @63
    _Z24lodepng_chunk_next_constPKhS0_ @64
    _Z24lodepng_chunk_safetocopyPKh @65
    _Z24lodepng_color_stats_initP17LodePNGColorStats @66
    _Z25lodepng_chunk_type_equalsPKhPKc @67
    _Z25lodepng_has_palette_alphaPK16LodePNGColorMode @68
    _Z25lodepng_is_greyscale_typePK16LodePNGColorMode @69
    _Z26lodepng_chunk_generate_crcPh @70
    _Z26lodepng_color_mode_cleanupP16LodePNGColorMode @71
    _Z27lodepng_compute_color_statsP17LodePNGColorStatsPKhjjPK16LodePNGColorMode @72
    _Z28lodepng_huffman_code_lengthsPjPKjyj @73
    _Z29lodepng_decoder_settings_initP22LodePNGDecoderSettings @74
    _Z29lodepng_encoder_settings_initP22LodePNGEncoderSettings @75
    _Z30lodepng_compress_settings_initP23LodePNGCompressSettings @76
    _Z32lodepng_decompress_settings_initP25LodePNGDecompressSettings @77
    _ZN7lodepng10decompressERSt6vectorIhSaIhEEPKhyRK25LodePNGDecompressSettings @78
    _ZN7lodepng10decompressERSt6vectorIhSaIhEERKS2_RK25LodePNGDecompressSettings @79
    _ZN7lodepng5StateC1ERKS0_ @80
    _ZN7lodepng5StateC1Ev @81
    _ZN7lodepng5StateC2ERKS0_ @82
    _ZN7lodepng5StateC2Ev @83
    _ZN7lodepng5StateD1Ev @84
    _ZN7lodepng5StateD2Ev @85
    _ZN7lodepng5StateaSERKS0_ @86
    _ZN7lodepng6decodeERSt6vectorIhSaIhEERjS4_PKhy16LodePNGColorTypej @87
    _ZN7lodepng6decodeERSt6vectorIhSaIhEERjS4_RKNSt7__cxx1112basic_stringIcSt11char_traitsIcESaIcEEE16LodePNGColorTypej @88
    _ZN7lodepng6decodeERSt6vectorIhSaIhEERjS4_RKS2_16LodePNGColorTypej @89
    _ZN7lodepng6decodeERSt6vectorIhSaIhEERjS4_RNS_5StateEPKhy @90
    _ZN7lodepng6decodeERSt6vectorIhSaIhEERjS4_RNS_5StateERKS2_ @91
    _ZN7lodepng6encodeERKNSt7__cxx1112basic_stringIcSt11char_traitsIcESaIcEEEPKhjj16LodePNGColorTypej @92
    _ZN7lodepng6encodeERKNSt7__cxx1112basic_stringIcSt11char_traitsIcESaIcEEERKSt6vectorIhSaIhEEjj16LodePNGColorTypej @93
    _ZN7lodepng6encodeERSt6vectorIhSaIhEEPKhjj16LodePNGColorTypej @94
    _ZN7lodepng6encodeERSt6vectorIhSaIhEEPKhjjRNS_5StateE @95
    _ZN7lodepng6encodeERSt6vectorIhSaIhEERKS2_jj16LodePNGColorTypej @96
    _ZN7lodepng6encodeERSt6vectorIhSaIhEERKS2_jjRNS_5StateE @97
    _ZN7lodepng8compressERSt6vectorIhSaIhEEPKhyRK23LodePNGCompressSettings @98
    _ZN7lodepng8compressERSt6vectorIhSaIhEERKS2_RK23LodePNGCompressSettings @99
    _ZN7lodepng9load_fileERSt6vectorIhSaIhEERKNSt7__cxx1112basic_stringIcSt11char_traitsIcESaIcEEE @100
    _ZN7lodepng9save_fileERKSt6vectorIhSaIhEERKNSt7__cxx1112basic_stringIcSt11char_traitsIcESaIcEEE @101
    _ZNSt6vectorIhSaIhEE17_M_default_appendEy @102
    lodepng_default_compress_settings @103 DATA
    lodepng_default_decompress_settings @104 DATA
